target datalayout = "e-m:e-p270:32:32-p271:32:32-p272:64:64-i64:64-i128:128-f80:128-n8:16:32:64-S128"
target triple = "x86_64-pc-linux-gnu"

%struct.strbuf = type { i64, i64, ptr }
%struct.merge_result = type { i32, ptr, ptr, ptr, i32 }
%struct.tree = type { %struct.object, ptr, i64 }
%struct.object = type { i32, %struct.object_id }
%struct.object_id = type { [32 x i8], i32 }
%struct.merge_options = type { ptr, ptr, ptr, ptr, i32, i32, i32, i32, i32, i64, i32, i32, i32, i32, %struct.strbuf, ptr, i8, ptr, ptr }

@.str = private unnamed_addr constant [20 x i8] c"Already up to date.\00", align 1
@strbuf_slopbuf = external global [0 x i8], align 1
@__const.unclean.sb = private unnamed_addr constant %struct.strbuf { i64 0, i64 0, ptr @strbuf_slopbuf }, align 8
@.str.1 = private unnamed_addr constant [78 x i8] c"Your local changes to the following files would be overwritten by merge:\0A  %s\00", align 1
@.str.2 = private unnamed_addr constant [1 x i8] zeroinitializer, align 1
@git_gettext_enabled = external global i32, align 4

; Function Attrs: nounwind uwtable
define dso_local i32 @merge_ort_nonrecursive(ptr noundef %0, ptr noundef %1, ptr noundef %2, ptr noundef %3) #0 {
  %5 = alloca i32, align 4
  %6 = alloca ptr, align 8
  %7 = alloca ptr, align 8
  %8 = alloca ptr, align 8
  %9 = alloca ptr, align 8
  %10 = alloca %struct.merge_result, align 8
  %11 = alloca i32, align 4
  store ptr %0, ptr %6, align 8, !tbaa !4
  store ptr %1, ptr %7, align 8, !tbaa !9
  store ptr %2, ptr %8, align 8, !tbaa !9
  store ptr %3, ptr %9, align 8, !tbaa !9
  call void @llvm.lifetime.start.p0(i64 40, ptr %10) #8
  %12 = load ptr, ptr %6, align 8, !tbaa !4
  %13 = load ptr, ptr %7, align 8, !tbaa !9
  %14 = call i32 @unclean(ptr noundef %12, ptr noundef %13)
  %15 = icmp ne i32 %14, 0
  br i1 %15, label %16, label %17

16:                                               ; preds = %4
  store i32 -1, ptr %5, align 4
  store i32 1, ptr %11, align 4
  br label %38

17:                                               ; preds = %4
  %18 = load ptr, ptr %9, align 8, !tbaa !9
  %19 = getelementptr inbounds nuw %struct.tree, ptr %18, i32 0, i32 0
  %20 = getelementptr inbounds nuw %struct.object, ptr %19, i32 0, i32 1
  %21 = load ptr, ptr %8, align 8, !tbaa !9
  %22 = getelementptr inbounds nuw %struct.tree, ptr %21, i32 0, i32 0
  %23 = getelementptr inbounds nuw %struct.object, ptr %22, i32 0, i32 1
  %24 = call i32 @oideq(ptr noundef %20, ptr noundef %23)
  %25 = icmp ne i32 %24, 0
  br i1 %25, label %26, label %29

26:                                               ; preds = %17
  %27 = call ptr @_(ptr noundef @.str)
  %28 = call i32 (ptr, ...) @printf_ln(ptr noundef %27)
  store i32 1, ptr %5, align 4
  store i32 1, ptr %11, align 4
  br label %38

29:                                               ; preds = %17
  call void @llvm.memset.p0.i64(ptr align 8 %10, i8 0, i64 40, i1 false)
  %30 = load ptr, ptr %6, align 8, !tbaa !4
  %31 = load ptr, ptr %9, align 8, !tbaa !9
  %32 = load ptr, ptr %7, align 8, !tbaa !9
  %33 = load ptr, ptr %8, align 8, !tbaa !9
  call void @merge_incore_nonrecursive(ptr noundef %30, ptr noundef %31, ptr noundef %32, ptr noundef %33, ptr noundef %10)
  %34 = load ptr, ptr %6, align 8, !tbaa !4
  %35 = load ptr, ptr %7, align 8, !tbaa !9
  call void @merge_switch_to_result(ptr noundef %34, ptr noundef %35, ptr noundef %10, i32 noundef 1, i32 noundef 1)
  %36 = getelementptr inbounds nuw %struct.merge_result, ptr %10, i32 0, i32 0
  %37 = load i32, ptr %36, align 8, !tbaa !11
  store i32 %37, ptr %5, align 4
  store i32 1, ptr %11, align 4
  br label %38

38:                                               ; preds = %29, %26, %16
  call void @llvm.lifetime.end.p0(i64 40, ptr %10) #8
  %39 = load i32, ptr %5, align 4
  ret i32 %39
}

; Function Attrs: nocallback nofree nosync nounwind willreturn memory(argmem: readwrite)
declare void @llvm.lifetime.start.p0(i64 immarg, ptr captures(none)) #1

; Function Attrs: nounwind uwtable
define internal i32 @unclean(ptr noundef %0, ptr noundef %1) #0 {
  %3 = alloca i32, align 4
  %4 = alloca ptr, align 8
  %5 = alloca ptr, align 8
  %6 = alloca %struct.strbuf, align 8
  %7 = alloca i32, align 4
  store ptr %0, ptr %4, align 8, !tbaa !4
  store ptr %1, ptr %5, align 8, !tbaa !9
  call void @llvm.lifetime.start.p0(i64 24, ptr %6) #8
  call void @llvm.memcpy.p0.p0.i64(ptr align 8 %6, ptr align 8 @__const.unclean.sb, i64 24, i1 false)
  %8 = load ptr, ptr %5, align 8, !tbaa !9
  %9 = icmp ne ptr %8, null
  br i1 %9, label %10, label %23

10:                                               ; preds = %2
  %11 = load ptr, ptr %4, align 8, !tbaa !4
  %12 = getelementptr inbounds nuw %struct.merge_options, ptr %11, i32 0, i32 0
  %13 = load ptr, ptr %12, align 8, !tbaa !15
  %14 = load ptr, ptr %5, align 8, !tbaa !9
  %15 = call i32 @repo_index_has_changes(ptr noundef %13, ptr noundef %14, ptr noundef %6)
  %16 = icmp ne i32 %15, 0
  br i1 %16, label %17, label %23

17:                                               ; preds = %10
  %18 = call ptr @_(ptr noundef @.str.1)
  %19 = getelementptr inbounds nuw %struct.strbuf, ptr %6, i32 0, i32 2
  %20 = load ptr, ptr %19, align 8, !tbaa !22
  %21 = call i32 (ptr, ...) @error(ptr noundef %18, ptr noundef %20)
  %22 = call i32 @const_error()
  call void @strbuf_release(ptr noundef %6)
  store i32 -1, ptr %3, align 4
  store i32 1, ptr %7, align 4
  br label %24

23:                                               ; preds = %10, %2
  store i32 0, ptr %3, align 4
  store i32 1, ptr %7, align 4
  br label %24

24:                                               ; preds = %23, %17
  call void @llvm.lifetime.end.p0(i64 24, ptr %6) #8
  %25 = load i32, ptr %3, align 4
  ret i32 %25
}

; Function Attrs: inlinehint nounwind uwtable
define internal i32 @oideq(ptr noundef %0, ptr noundef %1) #2 {
  %3 = alloca ptr, align 8
  %4 = alloca ptr, align 8
  store ptr %0, ptr %3, align 8, !tbaa !23
  store ptr %1, ptr %4, align 8, !tbaa !23
  %5 = load ptr, ptr %3, align 8, !tbaa !23
  %6 = getelementptr inbounds nuw %struct.object_id, ptr %5, i32 0, i32 0
  %7 = getelementptr inbounds [32 x i8], ptr %6, i64 0, i64 0
  %8 = load ptr, ptr %4, align 8, !tbaa !23
  %9 = getelementptr inbounds nuw %struct.object_id, ptr %8, i32 0, i32 0
  %10 = getelementptr inbounds [32 x i8], ptr %9, i64 0, i64 0
  %11 = call i32 @memcmp(ptr noundef %7, ptr noundef %10, i64 noundef 32) #9
  %12 = icmp ne i32 %11, 0
  %13 = xor i1 %12, true
  %14 = zext i1 %13 to i32
  ret i32 %14
}

declare i32 @printf_ln(ptr noundef, ...) #3

; Function Attrs: inlinehint nounwind uwtable
define internal ptr @_(ptr noundef %0) #2 {
  %2 = alloca ptr, align 8
  %3 = alloca ptr, align 8
  store ptr %0, ptr %3, align 8, !tbaa !25
  %4 = load ptr, ptr %3, align 8, !tbaa !25
  %5 = load i8, ptr %4, align 1, !tbaa !26
  %6 = icmp ne i8 %5, 0
  br i1 %6, label %8, label %7

7:                                                ; preds = %1
  store ptr @.str.2, ptr %2, align 8
  br label %16

8:                                                ; preds = %1
  %9 = load i32, ptr @git_gettext_enabled, align 4, !tbaa !27
  %10 = icmp ne i32 %9, 0
  br i1 %10, label %13, label %11

11:                                               ; preds = %8
  %12 = load ptr, ptr %3, align 8, !tbaa !25
  store ptr %12, ptr %2, align 8
  br label %16

13:                                               ; preds = %8
  %14 = load ptr, ptr %3, align 8, !tbaa !25
  %15 = call ptr @dcgettext(ptr noundef null, ptr noundef %14, i32 noundef 5) #8
  store ptr %15, ptr %2, align 8
  br label %16

16:                                               ; preds = %13, %11, %7
  %17 = load ptr, ptr %2, align 8
  ret ptr %17
}

; Function Attrs: nocallback nofree nounwind willreturn memory(argmem: write)
declare void @llvm.memset.p0.i64(ptr writeonly captures(none), i8, i64, i1 immarg) #4

declare void @merge_incore_nonrecursive(ptr noundef, ptr noundef, ptr noundef, ptr noundef, ptr noundef) #3

declare void @merge_switch_to_result(ptr noundef, ptr noundef, ptr noundef, i32 noundef, i32 noundef) #3

; Function Attrs: nocallback nofree nosync nounwind willreturn memory(argmem: readwrite)
declare void @llvm.lifetime.end.p0(i64 immarg, ptr captures(none)) #1

; Function Attrs: nounwind uwtable
define dso_local i32 @merge_ort_recursive(ptr noundef %0, ptr noundef %1, ptr noundef %2, ptr noundef %3, ptr noundef %4) #0 {
  %6 = alloca i32, align 4
  %7 = alloca ptr, align 8
  %8 = alloca ptr, align 8
  %9 = alloca ptr, align 8
  %10 = alloca ptr, align 8
  %11 = alloca ptr, align 8
  %12 = alloca ptr, align 8
  %13 = alloca %struct.merge_result, align 8
  %14 = alloca i32, align 4
  store ptr %0, ptr %7, align 8, !tbaa !4
  store ptr %1, ptr %8, align 8, !tbaa !28
  store ptr %2, ptr %9, align 8, !tbaa !28
  store ptr %3, ptr %10, align 8, !tbaa !30
  store ptr %4, ptr %11, align 8, !tbaa !32
  call void @llvm.lifetime.start.p0(i64 8, ptr %12) #8
  %15 = load ptr, ptr %7, align 8, !tbaa !4
  %16 = getelementptr inbounds nuw %struct.merge_options, ptr %15, i32 0, i32 0
  %17 = load ptr, ptr %16, align 8, !tbaa !15
  %18 = load ptr, ptr %8, align 8, !tbaa !28
  %19 = call ptr @repo_get_commit_tree(ptr noundef %17, ptr noundef %18)
  store ptr %19, ptr %12, align 8, !tbaa !9
  call void @llvm.lifetime.start.p0(i64 40, ptr %13) #8
  %20 = load ptr, ptr %7, align 8, !tbaa !4
  %21 = load ptr, ptr %12, align 8, !tbaa !9
  %22 = call i32 @unclean(ptr noundef %20, ptr noundef %21)
  %23 = icmp ne i32 %22, 0
  br i1 %23, label %24, label %25

24:                                               ; preds = %5
  store i32 -1, ptr %6, align 4
  store i32 1, ptr %14, align 4
  br label %35

25:                                               ; preds = %5
  call void @llvm.memset.p0.i64(ptr align 8 %13, i8 0, i64 40, i1 false)
  %26 = load ptr, ptr %7, align 8, !tbaa !4
  %27 = load ptr, ptr %10, align 8, !tbaa !30
  %28 = load ptr, ptr %8, align 8, !tbaa !28
  %29 = load ptr, ptr %9, align 8, !tbaa !28
  call void @merge_incore_recursive(ptr noundef %26, ptr noundef %27, ptr noundef %28, ptr noundef %29, ptr noundef %13)
  %30 = load ptr, ptr %7, align 8, !tbaa !4
  %31 = load ptr, ptr %12, align 8, !tbaa !9
  call void @merge_switch_to_result(ptr noundef %30, ptr noundef %31, ptr noundef %13, i32 noundef 1, i32 noundef 1)
  %32 = load ptr, ptr %11, align 8, !tbaa !32
  store ptr null, ptr %32, align 8, !tbaa !28
  %33 = getelementptr inbounds nuw %struct.merge_result, ptr %13, i32 0, i32 0
  %34 = load i32, ptr %33, align 8, !tbaa !11
  store i32 %34, ptr %6, align 4
  store i32 1, ptr %14, align 4
  br label %35

35:                                               ; preds = %25, %24
  call void @llvm.lifetime.end.p0(i64 40, ptr %13) #8
  call void @llvm.lifetime.end.p0(i64 8, ptr %12) #8
  %36 = load i32, ptr %6, align 4
  ret i32 %36
}

declare ptr @repo_get_commit_tree(ptr noundef, ptr noundef) #3

declare void @merge_incore_recursive(ptr noundef, ptr noundef, ptr noundef, ptr noundef, ptr noundef) #3

; Function Attrs: nocallback nofree nounwind willreturn memory(argmem: readwrite)
declare void @llvm.memcpy.p0.p0.i64(ptr noalias writeonly captures(none), ptr noalias readonly captures(none), i64, i1 immarg) #5

declare i32 @repo_index_has_changes(ptr noundef, ptr noundef, ptr noundef) #3

declare i32 @error(ptr noundef, ...) #3

; Function Attrs: inlinehint nounwind uwtable
define internal i32 @const_error() #2 {
  ret i32 -1
}

declare void @strbuf_release(ptr noundef) #3

; Function Attrs: nounwind willreturn memory(read)
declare i32 @memcmp(ptr noundef, ptr noundef, i64 noundef) #6

; Function Attrs: nounwind
declare ptr @dcgettext(ptr noundef, ptr noundef, i32 noundef) #7


!llvm.module.flags = !{!0, !1, !2, !3}

!0 = !{i32 1, !"wchar_size", i32 4}
!1 = !{i32 8, !"PIC Level", i32 2}
!2 = !{i32 7, !"PIE Level", i32 2}
!3 = !{i32 7, !"uwtable", i32 2}
!4 = !{!5, !5, i64 0}
!5 = !{!"p1 _ZTS13merge_options", !6, i64 0}
!6 = !{!"any pointer", !7, i64 0}
!7 = !{!"omnipotent char", !8, i64 0}
!8 = !{!"Simple C/C++ TBAA"}
!9 = !{!10, !10, i64 0}
!10 = !{!"p1 _ZTS4tree", !6, i64 0}
!11 = !{!12, !13, i64 0}
!12 = !{!"merge_result", !13, i64 0, !10, i64 8, !14, i64 16, !6, i64 24, !13, i64 32}
!13 = !{!"int", !7, i64 0}
!14 = !{!"p1 _ZTS6strmap", !6, i64 0}
!15 = !{!16, !17, i64 0}
!16 = !{!"merge_options", !17, i64 0, !18, i64 8, !18, i64 16, !18, i64 24, !13, i64 32, !13, i64 36, !13, i64 40, !13, i64 44, !13, i64 48, !19, i64 56, !13, i64 64, !13, i64 68, !13, i64 72, !13, i64 76, !20, i64 80, !18, i64 104, !13, i64 112, !13, i64 112, !18, i64 120, !21, i64 128}
!17 = !{!"p1 _ZTS10repository", !6, i64 0}
!18 = !{!"p1 omnipotent char", !6, i64 0}
!19 = !{!"long", !7, i64 0}
!20 = !{!"strbuf", !19, i64 0, !19, i64 8, !18, i64 16}
!21 = !{!"p1 _ZTS22merge_options_internal", !6, i64 0}
!22 = !{!20, !18, i64 16}
!23 = !{!24, !24, i64 0}
!24 = !{!"p1 _ZTS9object_id", !6, i64 0}
!25 = !{!18, !18, i64 0}
!26 = !{!7, !7, i64 0}
!27 = !{!13, !13, i64 0}
!28 = !{!29, !29, i64 0}
!29 = !{!"p1 _ZTS6commit", !6, i64 0}
!30 = !{!31, !31, i64 0}
!31 = !{!"p1 _ZTS11commit_list", !6, i64 0}
!32 = !{!33, !33, i64 0}
!33 = !{!"p2 _ZTS6commit", !6, i64 0}
